target datalayout = "e-m:e-p270:32:32-p271:32:32-p272:64:64-i64:64-i128:128-f80:128-n8:16:32:64-S128"
target triple = "x86_64-pc-linux-gnu"

%"class.llvm::StringRef" = type { ptr, i64 }
%"class.clang::SourceLocation" = type { i32 }
%"struct.(anonymous namespace)::Scanner" = type { %"class.llvm::StringMap", %"class.llvm::StringRef", ptr, ptr, %"class.clang::SourceLocation", ptr, %"class.llvm::SmallVector", %"class.llvm::SmallVector.0", %"class.clang::LangOptions", %"class.clang::Lexer" }
%"class.llvm::StringMap" = type { %"class.llvm::StringMapImpl" }
%"class.llvm::StringMapImpl" = type { ptr, i32, i32, i32, i32 }
%"class.llvm::SmallVector" = type { %"class.llvm::SmallVectorImpl", %"struct.llvm::SmallVectorStorage" }
%"class.llvm::SmallVectorImpl" = type { %"class.llvm::SmallVectorTemplateBase" }
%"class.llvm::SmallVectorTemplateBase" = type { %"class.llvm::SmallVectorTemplateCommon" }
%"class.llvm::SmallVectorTemplateCommon" = type { %"class.llvm::SmallVectorBase" }
%"class.llvm::SmallVectorBase" = type { ptr, i32, i32 }
%"struct.llvm::SmallVectorStorage" = type { [384 x i8] }
%"class.llvm::SmallVector.0" = type { %"class.llvm::SmallVectorImpl.1", %"struct.llvm::SmallVectorStorage.4" }
%"class.llvm::SmallVectorImpl.1" = type { %"class.llvm::SmallVectorTemplateBase.2" }
%"class.llvm::SmallVectorTemplateBase.2" = type { %"class.llvm::SmallVectorTemplateCommon.3" }
%"class.llvm::SmallVectorTemplateCommon.3" = type { %"class.llvm::SmallVectorBase" }
%"struct.llvm::SmallVectorStorage.4" = type { [512 x i8] }
%"class.clang::LangOptions" = type <{ %"class.clang::LangOptionsBase.base", [2 x i8], i32, %"struct.clang::SanitizerSet", i8, [7 x i8], %"class.std::vector", %"class.std::vector", %"class.std::vector", %"class.std::vector", %"class.std::vector", %"class.clang::ObjCRuntime", i32, %"class.std::__cxx11::basic_string", %"class.std::__cxx11::basic_string", %"class.std::__cxx11::basic_string", %"class.std::__cxx11::basic_string", %"class.std::vector", %"struct.clang::CommentOptions", %"class.std::vector", %"class.std::map", %"class.std::vector.11", %"class.std::__cxx11::basic_string", %"class.std::__cxx11::basic_string", %"class.std::optional", i8, [3 x i8], i32, i32, [4 x i8], %"class.std::vector", %"class.std::__cxx11::basic_string", i8, i8, [6 x i8], %"class.std::__cxx11::basic_string", i8, [7 x i8] }>
%"class.clang::LangOptionsBase.base" = type <{ i64, i64, i64, i64, i64, i64, i64, i64, i64, i64, i64, i64, i64, i64, i64, i64, i64, i64, i64, i64, i64, i64, i64, i64, i64, i16 }>
%"struct.clang::SanitizerSet" = type { %"class.clang::SanitizerMask" }
%"class.clang::SanitizerMask" = type { [2 x i64] }
%"class.clang::ObjCRuntime" = type <{ i32, %"class.llvm::VersionTuple" }>
%"class.llvm::VersionTuple" = type { i64, i64 }
%"struct.clang::CommentOptions" = type <{ %"class.std::vector", i8, [7 x i8] }>
%"class.std::map" = type { %"class.std::_Rb_tree" }
%"class.std::_Rb_tree" = type { %"struct.std::_Rb_tree<std::__cxx11::basic_string<char>, std::pair<const std::__cxx11::basic_string<char>, std::__cxx11::basic_string<char>>, std::_Select1st<std::pair<const std::__cxx11::basic_string<char>, std::__cxx11::basic_string<char>>>, std::greater<std::__cxx11::basic_string<char>>>::_Rb_tree_impl" }
%"struct.std::_Rb_tree<std::__cxx11::basic_string<char>, std::pair<const std::__cxx11::basic_string<char>, std::__cxx11::basic_string<char>>, std::_Select1st<std::pair<const std::__cxx11::basic_string<char>, std::__cxx11::basic_string<char>>>, std::greater<std::__cxx11::basic_string<char>>>::_Rb_tree_impl" = type { [8 x i8], %"struct.std::_Rb_tree_header" }
%"struct.std::_Rb_tree_header" = type { %"struct.std::_Rb_tree_node_base", i64 }
%"struct.std::_Rb_tree_node_base" = type { i32, ptr, ptr, ptr }
%"class.std::vector.11" = type { %"struct.std::_Vector_base.12" }
%"struct.std::_Vector_base.12" = type { %"struct.std::_Vector_base<llvm::Triple, std::allocator<llvm::Triple>>::_Vector_impl" }
%"struct.std::_Vector_base<llvm::Triple, std::allocator<llvm::Triple>>::_Vector_impl" = type { %"struct.std::_Vector_base<llvm::Triple, std::allocator<llvm::Triple>>::_Vector_impl_data" }
%"struct.std::_Vector_base<llvm::Triple, std::allocator<llvm::Triple>>::_Vector_impl_data" = type { ptr, ptr, ptr }
%"class.std::optional" = type { %"struct.std::_Optional_base" }
%"struct.std::_Optional_base" = type { %"struct.std::_Optional_payload" }
%"struct.std::_Optional_payload" = type { %"struct.std::_Optional_payload_base.base", [3 x i8] }
%"struct.std::_Optional_payload_base.base" = type <{ %"union.std::_Optional_payload_base<clang::TargetCXXABI::Kind>::_Storage", i8 }>
%"union.std::_Optional_payload_base<clang::TargetCXXABI::Kind>::_Storage" = type { i32 }
%"class.std::vector" = type { %"struct.std::_Vector_base" }
%"struct.std::_Vector_base" = type { %"struct.std::_Vector_base<std::__cxx11::basic_string<char>, std::allocator<std::__cxx11::basic_string<char>>>::_Vector_impl" }
%"struct.std::_Vector_base<std::__cxx11::basic_string<char>, std::allocator<std::__cxx11::basic_string<char>>>::_Vector_impl" = type { %"struct.std::_Vector_base<std::__cxx11::basic_string<char>, std::allocator<std::__cxx11::basic_string<char>>>::_Vector_impl_data" }
%"struct.std::_Vector_base<std::__cxx11::basic_string<char>, std::allocator<std::__cxx11::basic_string<char>>>::_Vector_impl_data" = type { ptr, ptr, ptr }
%"class.std::__cxx11::basic_string" = type { %"struct.std::__cxx11::basic_string<char>::_Alloc_hider", i64, %union.anon }
%"struct.std::__cxx11::basic_string<char>::_Alloc_hider" = type { ptr }
%union.anon = type { i64, [8 x i8] }
%"class.clang::Lexer" = type <{ %"class.clang::PreprocessorLexer", ptr, ptr, %"class.clang::SourceLocation", [4 x i8], ptr, i8, i8, i8, [5 x i8], ptr, i8, i8, i8, i8, i8, [3 x i8], ptr, i32, [4 x i8], %"class.llvm::ArrayRef", i32, [4 x i8] }>
%"class.clang::PreprocessorLexer" = type { ptr, ptr, %"class.clang::FileID", i32, i8, i8, i8, %"class.clang::MultipleIncludeOpt", %"class.llvm::SmallVector.16" }
%"class.clang::FileID" = type { i32 }
%"class.clang::MultipleIncludeOpt" = type { i8, i8, i8, ptr, ptr, %"class.clang::SourceLocation", %"class.clang::SourceLocation" }
%"class.llvm::SmallVector.16" = type { %"class.llvm::SmallVectorImpl.17", %"struct.llvm::SmallVectorStorage.20" }
%"class.llvm::SmallVectorImpl.17" = type { %"class.llvm::SmallVectorTemplateBase.18" }
%"class.llvm::SmallVectorTemplateBase.18" = type { %"class.llvm::SmallVectorTemplateCommon.19" }
%"class.llvm::SmallVectorTemplateCommon.19" = type { %"class.llvm::SmallVectorBase" }
%"struct.llvm::SmallVectorStorage.20" = type { [32 x i8] }
%"class.llvm::ArrayRef" = type { ptr, i64 }
%"struct.clang::dependency_directives_scan::Token" = type { i32, i32, i16, i16 }
%"class.clang::Token" = type <{ i32, i32, ptr, i16, i16, [4 x i8] }>

; Function Attrs: mustprogress nounwind uwtable
define linkonce_odr hidden noundef ptr @_ZN4llvm25SmallVectorTemplateCommonIN5clang26dependency_directives_scan5TokenEvE5beginEv(ptr noundef nonnull align 8 dereferenceable(16) %0) #0 comdat align 2 {
  %2 = alloca ptr, align 8
  store ptr %0, ptr %2, align 8
  %3 = load ptr, ptr %2, align 8
  %4 = getelementptr inbounds nuw %"class.llvm::SmallVectorBase", ptr %3, i32 0, i32 0
  %5 = load ptr, ptr %4, align 8
  ret ptr %5
}

; Function Attrs: mustprogress nounwind uwtable
define linkonce_odr hidden noundef ptr @_ZN4llvm25SmallVectorTemplateCommonIN5clang26dependency_directives_scan5TokenEvE3endEv(ptr noundef nonnull align 8 dereferenceable(16) %0) #0 comdat align 2 {
  %2 = alloca ptr, align 8
  store ptr %0, ptr %2, align 8
  %3 = load ptr, ptr %2, align 8
  %4 = call noundef ptr @_ZN4llvm25SmallVectorTemplateCommonIN5clang26dependency_directives_scan5TokenEvE5beginEv(ptr noundef nonnull align 8 dereferenceable(16) %3)
  %5 = call noundef i64 @_ZNK4llvm15SmallVectorBaseIjE4sizeEv(ptr noundef nonnull align 8 dereferenceable(16) %3)
  %6 = getelementptr inbounds %"struct.clang::dependency_directives_scan::Token", ptr %4, i64 %5
  ret ptr %6
}

; Function Attrs: mustprogress nounwind uwtable
define linkonce_odr hidden noundef nonnull align 4 dereferenceable(12) ptr @_ZN4llvm25SmallVectorTemplateCommonIN5clang26dependency_directives_scan5TokenEvE4backEv(ptr noundef nonnull align 8 dereferenceable(16) %0) #0 comdat align 2 {
  %2 = alloca ptr, align 8
  store ptr %0, ptr %2, align 8
  %3 = load ptr, ptr %2, align 8
  %4 = call noundef ptr @_ZN4llvm25SmallVectorTemplateCommonIN5clang26dependency_directives_scan5TokenEvE3endEv(ptr noundef nonnull align 8 dereferenceable(16) %3)
  %5 = getelementptr inbounds %"struct.clang::dependency_directives_scan::Token", ptr %4, i64 -1
  ret ptr %5
}

; Function Attrs: mustprogress nounwind uwtable
define linkonce_odr hidden noundef i32 @_ZNK5clang5Token8getFlagsEv(ptr noundef nonnull align 8 dereferenceable(20) %0) #0 comdat align 2 {
  %2 = alloca ptr, align 8
  store ptr %0, ptr %2, align 8
  %3 = load ptr, ptr %2, align 8
  %4 = getelementptr inbounds nuw %"class.clang::Token", ptr %3, i32 0, i32 4
  %5 = load i16, ptr %4, align 2
  %6 = zext i16 %5 to i32
  ret i32 %6
}

; Function Attrs: mustprogress nounwind uwtable
define linkonce_odr hidden noundef zeroext i16 @_ZNK5clang5Token7getKindEv(ptr noundef nonnull align 8 dereferenceable(20) %0) #0 comdat align 2 {
  %2 = alloca ptr, align 8
  store ptr %0, ptr %2, align 8
  %3 = load ptr, ptr %2, align 8
  %4 = getelementptr inbounds nuw %"class.clang::Token", ptr %3, i32 0, i32 3
  %5 = load i16, ptr %4, align 8
  ret i16 %5
}

; Function Attrs: mustprogress nounwind uwtable
define linkonce_odr hidden noundef i32 @_ZNK5clang5Token9getLengthEv(ptr noundef nonnull align 8 dereferenceable(20) %0) #0 comdat align 2 {
  %2 = alloca ptr, align 8
  store ptr %0, ptr %2, align 8
  %3 = load ptr, ptr %2, align 8
  %4 = getelementptr inbounds nuw %"class.clang::Token", ptr %3, i32 0, i32 1
  %5 = load i32, ptr %4, align 4
  ret i32 %5
}

; Function Attrs: mustprogress nounwind uwtable
define linkonce_odr hidden noundef i32 @_ZN5clang5Lexer22getCurrentBufferOffsetEv(ptr noundef nonnull align 8 dereferenceable(204) %0) #0 comdat align 2 {
  %2 = alloca ptr, align 8
  store ptr %0, ptr %2, align 8
  %3 = load ptr, ptr %2, align 8
  %4 = getelementptr inbounds nuw %"class.clang::Lexer", ptr %3, i32 0, i32 10
  %5 = load ptr, ptr %4, align 8
  %6 = getelementptr inbounds nuw %"class.clang::Lexer", ptr %3, i32 0, i32 1
  %7 = load ptr, ptr %6, align 8
  %8 = ptrtoint ptr %5 to i64
  %9 = ptrtoint ptr %7 to i64
  %10 = sub i64 %8, %9
  %11 = trunc i64 %10 to i32
  ret i32 %11
}

; Function Attrs: mustprogress nounwind uwtable
define linkonce_odr hidden noundef ptr @_ZNK4llvm9StringRef4dataEv(ptr noundef nonnull align 8 dereferenceable(16) %0) #0 comdat align 2 {
  %2 = alloca ptr, align 8
  store ptr %0, ptr %2, align 8
  %3 = load ptr, ptr %2, align 8
  %4 = getelementptr inbounds nuw %"class.llvm::StringRef", ptr %3, i32 0, i32 0
  %5 = load ptr, ptr %4, align 8
  ret ptr %5
}

; Function Attrs: mustprogress nounwind uwtable
define linkonce_odr hidden noundef zeroext i1 @_ZN5clang5Lexer15LexFromRawLexerERNS_5TokenE(ptr noundef nonnull align 8 dereferenceable(204) %0, ptr noundef nonnull align 8 dereferenceable(20) %1) #0 comdat align 2 {
  %3 = alloca ptr, align 8
  %4 = alloca ptr, align 8
  store ptr %0, ptr %3, align 8
  store ptr %1, ptr %4, align 8
  %5 = load ptr, ptr %3, align 8
  %6 = load ptr, ptr %4, align 8
  %7 = call noundef zeroext i1 @_ZN5clang5Lexer3LexERNS_5TokenE(ptr noundef nonnull align 8 dereferenceable(204) %5, ptr noundef nonnull align 8 dereferenceable(20) %6)
  %8 = getelementptr inbounds nuw %"class.clang::Lexer", ptr %5, i32 0, i32 10
  %9 = load ptr, ptr %8, align 8
  %10 = getelementptr inbounds nuw %"class.clang::Lexer", ptr %5, i32 0, i32 2
  %11 = load ptr, ptr %10, align 8
  %12 = icmp eq ptr %9, %11
  ret i1 %12
}

; Function Attrs: mustprogress nounwind uwtable
define linkonce_odr hidden noundef zeroext i1 @_ZNK5clang26dependency_directives_scan5Token2isENS_3tok9TokenKindE(ptr noundef nonnull align 4 dereferenceable(12) %0, i16 noundef zeroext %1) #0 comdat align 2 {
  %3 = alloca ptr, align 8
  %4 = alloca i16, align 2
  store ptr %0, ptr %3, align 8
  store i16 %1, ptr %4, align 2
  %5 = load ptr, ptr %3, align 8
  %6 = getelementptr inbounds nuw %"struct.clang::dependency_directives_scan::Token", ptr %5, i32 0, i32 2
  %7 = load i16, ptr %6, align 4
  %8 = zext i16 %7 to i32
  %9 = load i16, ptr %4, align 2
  %10 = zext i16 %9 to i32
  %11 = icmp eq i32 %8, %10
  ret i1 %11
}

; Function Attrs: mustprogress nounwind uwtable
define internal noundef nonnull align 4 dereferenceable(12) ptr @_ZN12_GLOBAL__N_17Scanner8lexTokenERPKcS2_(ptr noundef nonnull align 8 dereferenceable(2056) %0, ptr noundef nonnull align 8 dereferenceable(8) %1, ptr noundef %2) #0 align 2 {
  %4 = alloca ptr, align 8
  %5 = alloca ptr, align 8
  %6 = alloca ptr, align 8
  %7 = alloca %"class.clang::Token", align 8
  %8 = alloca i32, align 4
  %9 = alloca i32, align 4
  %10 = alloca i16, align 2
  %11 = alloca i32, align 4
  store ptr %0, ptr %4, align 8
  store ptr %1, ptr %5, align 8
  store ptr %2, ptr %6, align 8
  %12 = load ptr, ptr %4, align 8
  %13 = getelementptr inbounds nuw %"struct.(anonymous namespace)::Scanner", ptr %12, i32 0, i32 9
  %14 = call noundef zeroext i1 @_ZN5clang5Lexer15LexFromRawLexerERNS_5TokenE(ptr noundef nonnull align 8 dereferenceable(204) %13, ptr noundef nonnull align 8 dereferenceable(20) %7)
  %15 = getelementptr inbounds nuw %"struct.(anonymous namespace)::Scanner", ptr %12, i32 0, i32 1
  %16 = call noundef ptr @_ZNK4llvm9StringRef4dataEv(ptr noundef nonnull align 8 dereferenceable(16) %15)
  %17 = getelementptr inbounds nuw %"struct.(anonymous namespace)::Scanner", ptr %12, i32 0, i32 9
  %18 = call noundef i32 @_ZN5clang5Lexer22getCurrentBufferOffsetEv(ptr noundef nonnull align 8 dereferenceable(204) %17)
  %19 = zext i32 %18 to i64
  %20 = getelementptr inbounds i8, ptr %16, i64 %19
  %21 = load ptr, ptr %5, align 8
  store ptr %20, ptr %21, align 8
  %22 = getelementptr inbounds nuw %"struct.(anonymous namespace)::Scanner", ptr %12, i32 0, i32 9
  %23 = call noundef i32 @_ZN5clang5Lexer22getCurrentBufferOffsetEv(ptr noundef nonnull align 8 dereferenceable(204) %22)
  %24 = call noundef i32 @_ZNK5clang5Token9getLengthEv(ptr noundef nonnull align 8 dereferenceable(20) %7)
  %25 = sub i32 %23, %24
  store i32 %25, ptr %8, align 4
  %26 = getelementptr inbounds nuw %"struct.(anonymous namespace)::Scanner", ptr %12, i32 0, i32 6
  %27 = call noundef i32 @_ZNK5clang5Token9getLengthEv(ptr noundef nonnull align 8 dereferenceable(20) %7)
  store i32 %27, ptr %9, align 4
  %28 = call noundef zeroext i16 @_ZNK5clang5Token7getKindEv(ptr noundef nonnull align 8 dereferenceable(20) %7)
  store i16 %28, ptr %10, align 2
  %29 = call noundef i32 @_ZNK5clang5Token8getFlagsEv(ptr noundef nonnull align 8 dereferenceable(20) %7)
  store i32 %29, ptr %11, align 4
  %30 = call noundef nonnull align 4 dereferenceable(12) ptr @_ZN4llvm15SmallVectorImplIN5clang26dependency_directives_scan5TokenEE12emplace_backIJRjjNS1_3tok9TokenKindEjEEERS3_DpOT_(ptr noundef nonnull align 8 dereferenceable(16) %26, ptr noundef nonnull align 4 dereferenceable(4) %8, ptr noundef nonnull align 4 dereferenceable(4) %9, ptr noundef nonnull align 2 dereferenceable(2) %10, ptr noundef nonnull align 4 dereferenceable(4) %11)
  %31 = getelementptr inbounds nuw %"struct.(anonymous namespace)::Scanner", ptr %12, i32 0, i32 6
  %32 = call noundef nonnull align 4 dereferenceable(12) ptr @_ZN4llvm25SmallVectorTemplateCommonIN5clang26dependency_directives_scan5TokenEvE4backEv(ptr noundef nonnull align 8 dereferenceable(16) %31)
  ret ptr %32
}

; Function Attrs: mustprogress nounwind uwtable
define internal noundef zeroext i1 @_ZN12_GLOBAL__N_17Scanner21isNextTokenOrSkipLineEN5clang3tok9TokenKindERPKcS5_(ptr noundef nonnull align 8 dereferenceable(2056) %0, i16 noundef zeroext %1, ptr noundef nonnull align 8 dereferenceable(8) %2, ptr noundef %3) #0 align 2 {
  %5 = alloca i1, align 1
  %6 = alloca ptr, align 8
  %7 = alloca i16, align 2
  %8 = alloca ptr, align 8
  %9 = alloca ptr, align 8
  %10 = alloca ptr, align 8
  store ptr %0, ptr %6, align 8
  store i16 %1, ptr %7, align 2
  store ptr %2, ptr %8, align 8
  store ptr %3, ptr %9, align 8
  %11 = load ptr, ptr %6, align 8
  %12 = load ptr, ptr %8, align 8
  %13 = load ptr, ptr %9, align 8
  %14 = call noundef nonnull align 4 dereferenceable(12) ptr @_ZN12_GLOBAL__N_17Scanner8lexTokenERPKcS2_(ptr noundef nonnull align 8 dereferenceable(2056) %11, ptr noundef nonnull align 8 dereferenceable(8) %12, ptr noundef %13)
  store ptr %14, ptr %10, align 8
  %15 = load ptr, ptr %10, align 8
  %16 = load i16, ptr %7, align 2
  %17 = call noundef zeroext i1 @_ZNK5clang26dependency_directives_scan5Token2isENS_3tok9TokenKindE(ptr noundef nonnull align 4 dereferenceable(12) %15, i16 noundef zeroext %16)
  br i1 %17, label %18, label %19

18:                                               ; preds = %4
  store i1 true, ptr %5, align 1
  br label %22

19:                                               ; preds = %4
  %20 = load ptr, ptr %8, align 8
  %21 = load ptr, ptr %9, align 8
  call void @_ZN12_GLOBAL__N_17Scanner8skipLineERPKcS2_(ptr noundef nonnull align 8 dereferenceable(2056) %11, ptr noundef nonnull align 8 dereferenceable(8) %20, ptr noundef %21)
  store i1 false, ptr %5, align 1
  br label %22

22:                                               ; preds = %19, %18
  %23 = load i1, ptr %5, align 1
  ret i1 %23
}