; Function Attrs: mustprogress nounwind uwtable
define internal fastcc noundef zeroext i1 @_ZN12_GLOBAL__N_17Scanner21isNextTokenOrSkipLineEN5clang3tok9TokenKindERPKcS5_(ptr noundef nonnull align 8 dereferenceable(2056) %0, i16 noundef zeroext range(i16 22, 24) %1, ptr noundef nonnull align 8 captures(none) dereferenceable(8) initializes((0, 8)) %2, ptr noundef %3) unnamed_addr #0 align 2 {
  %5 = alloca %"class.clang::Token", align 8
  %6 = alloca i32, align 4
  %7 = alloca i32, align 4
  %8 = alloca i16, align 2
  %9 = alloca i32, align 4
  call void @llvm.lifetime.start.p0(i64 24, ptr nonnull %5)
  call void @llvm.lifetime.start.p0(i64 4, ptr nonnull %6)
  call void @llvm.lifetime.start.p0(i64 4, ptr nonnull %7)
  call void @llvm.lifetime.start.p0(i64 2, ptr nonnull %8)
  call void @llvm.lifetime.start.p0(i64 4, ptr nonnull %9)
  %10 = getelementptr inbounds nuw i8, ptr %0, i64 1848
  %11 = call noundef zeroext i1 @_ZN5clang5Lexer3LexERNS_5TokenE(ptr noundef nonnull align 8 dereferenceable(204) %10, ptr noundef nonnull align 8 dereferenceable(20) %5) #11
  %12 = getelementptr inbounds nuw i8, ptr %0, i64 2000
  %13 = load ptr, ptr %12, align 8
  %14 = getelementptr inbounds nuw i8, ptr %0, i64 24
  %15 = load ptr, ptr %14, align 8
  %16 = getelementptr inbounds nuw i8, ptr %0, i64 1960
  %17 = load ptr, ptr %16, align 8
  %18 = ptrtoint ptr %13 to i64
  %19 = ptrtoint ptr %17 to i64
  %20 = sub i64 %18, %19
  %21 = and i64 %20, 4294967295
  %22 = getelementptr inbounds nuw i8, ptr %15, i64 %21
  store ptr %22, ptr %2, align 8
  %23 = load ptr, ptr %12, align 8
  %24 = load ptr, ptr %16, align 8
  %25 = ptrtoint ptr %23 to i64
  %26 = ptrtoint ptr %24 to i64
  %27 = sub i64 %25, %26
  %28 = trunc i64 %27 to i32
  %29 = getelementptr inbounds nuw i8, ptr %5, i64 4
  %30 = load i32, ptr %29, align 4
  %31 = sub i32 %28, %30
  store i32 %31, ptr %6, align 4
  %32 = getelementptr inbounds nuw i8, ptr %0, i64 72
  store i32 %30, ptr %7, align 4
  %33 = getelementptr inbounds nuw i8, ptr %5, i64 16
  %34 = load i16, ptr %33, align 8
  store i16 %34, ptr %8, align 2
  %35 = getelementptr inbounds nuw i8, ptr %5, i64 18
  %36 = load i16, ptr %35, align 2
  %37 = zext i16 %36 to i32
  store i32 %37, ptr %9, align 4
  %38 = call noundef nonnull align 4 dereferenceable(12) ptr @_ZN4llvm15SmallVectorImplIN5clang26dependency_directives_scan5TokenEE12emplace_backIJRjjNS1_3tok9TokenKindEjEEERS3_DpOT_(ptr noundef nonnull align 8 dereferenceable(16) %32, ptr noundef nonnull align 4 dereferenceable(4) %6, ptr noundef nonnull align 4 dereferenceable(4) %7, ptr noundef nonnull align 2 dereferenceable(2) %8, ptr noundef nonnull align 4 dereferenceable(4) %9)
  %39 = load ptr, ptr %32, align 8
  %40 = call noundef i64 @_ZNK4llvm15SmallVectorBaseIjE4sizeEv(ptr noundef nonnull align 8 dereferenceable(16) %32) #11
  %41 = getelementptr inbounds %"struct.clang::dependency_directives_scan::Token", ptr %39, i64 %40
  call void @llvm.lifetime.end.p0(i64 24, ptr nonnull %5)
  call void @llvm.lifetime.end.p0(i64 4, ptr nonnull %6)
  call void @llvm.lifetime.end.p0(i64 4, ptr nonnull %7)
  call void @llvm.lifetime.end.p0(i64 2, ptr nonnull %8)
  call void @llvm.lifetime.end.p0(i64 4, ptr nonnull %9)
  %42 = getelementptr inbounds i8, ptr %41, i64 -4
  %43 = load i16, ptr %42, align 4
  %44 = icmp eq i16 %43, %1
  br i1 %44, label %46, label %45

45:                                               ; preds = %4
  call fastcc void @_ZN12_GLOBAL__N_17Scanner8skipLineERPKcS2_(ptr noundef nonnull align 8 dereferenceable(2056) %0, ptr noundef nonnull align 8 dereferenceable(8) %2, ptr noundef %3)
  br label %46

46:                                               ; preds = %4, %45
  ret i1 %44
}